target datalayout = "e-m:e-p270:32:32-p271:32:32-p272:64:64-i64:64-i128:128-f80:128-n8:16:32:64-S128"
target triple = "x86_64-pc-linux-gnu"

@.str.16 = private unnamed_addr constant [11 x i8] c"TRAILER!!!\00", align 1

; Function Attrs: nounwind uwtable
define internal i32 @archive_write_odc_close(ptr noundef %0) #0 {
  %2 = alloca i32, align 4
  %3 = alloca ptr, align 8
  %4 = alloca i32, align 4
  %5 = alloca ptr, align 8
  %6 = alloca i32, align 4
  store ptr %0, ptr %3, align 8, !tbaa !9
  call void @llvm.lifetime.start.p0(i64 4, ptr %4) #9
  call void @llvm.lifetime.start.p0(i64 8, ptr %5) #9
  %7 = call ptr @archive_entry_new2(ptr noundef null)
  store ptr %7, ptr %5, align 8, !tbaa !37
  %8 = load ptr, ptr %5, align 8, !tbaa !37
  %9 = icmp eq ptr %8, null
  br i1 %9, label %10, label %11

10:                                               ; preds = %1
  store i32 -30, ptr %2, align 4
  store i32 1, ptr %6, align 4
  br label %20

11:                                               ; preds = %1
  %12 = load ptr, ptr %5, align 8, !tbaa !37
  call void @archive_entry_set_nlink(ptr noundef %12, i32 noundef 1)
  %13 = load ptr, ptr %5, align 8, !tbaa !37
  call void @archive_entry_set_size(ptr noundef %13, i64 noundef 0)
  %14 = load ptr, ptr %5, align 8, !tbaa !37
  call void @archive_entry_set_pathname(ptr noundef %14, ptr noundef @.str.16)
  %15 = load ptr, ptr %3, align 8, !tbaa !9
  %16 = load ptr, ptr %5, align 8, !tbaa !37
  %17 = call i32 @write_header(ptr noundef %15, ptr noundef %16)
  store i32 %17, ptr %4, align 4, !tbaa !11
  %18 = load ptr, ptr %5, align 8, !tbaa !37
  call void @archive_entry_free(ptr noundef %18)
  %19 = load i32, ptr %4, align 4, !tbaa !11
  store i32 %19, ptr %2, align 4
  store i32 1, ptr %6, align 4
  br label %20

20:                                               ; preds = %11, %10
  call void @llvm.lifetime.end.p0(i64 8, ptr %5) #9
  call void @llvm.lifetime.end.p0(i64 4, ptr %4) #9
  %21 = load i32, ptr %2, align 4
  ret i32 %21
}