; Function Attrs: nounwind uwtable
define internal range(i32 -30, 1) i32 @archive_write_odc_close(ptr noundef %0) #0 {
  %2 = tail call ptr @archive_entry_new2(ptr noundef null) #12
  %3 = icmp eq ptr %2, null
  br i1 %3, label %6, label %4

4:                                                ; preds = %1
  tail call void @archive_entry_set_nlink(ptr noundef nonnull %2, i32 noundef 1) #12
  tail call void @archive_entry_set_size(ptr noundef nonnull %2, i64 noundef 0) #12
  tail call void @archive_entry_set_pathname(ptr noundef nonnull %2, ptr noundef nonnull @.str.16) #12
  %5 = tail call fastcc i32 @write_header(ptr noundef %0, ptr noundef nonnull %2)
  tail call void @archive_entry_free(ptr noundef nonnull %2) #12
  br label %6

6:                                                ; preds = %1, %4
  %.0 = phi i32 [ %5, %4 ], [ -30, %1 ]
  ret i32 %.0
}